target datalayout = "e-m:e-p270:32:32-p271:32:32-p272:64:64-i64:64-i128:128-f80:128-n8:16:32:64-S128"
target triple = "x86_64-pc-linux-gnu"

@.str.1 = private unnamed_addr constant [12 x i8] c"tuplesort.c\00", align 1
@.str.35 = private unnamed_addr constant [23 x i8] c"unexpected end of tape\00", align 1
@__func__.getlen = private unnamed_addr constant [7 x i8] c"getlen\00", align 1
@.str.36 = private unnamed_addr constant [23 x i8] c"unexpected end of data\00", align 1

; Function Attrs: nounwind uwtable
define internal i32 @getlen(ptr noundef %0, i1 noundef zeroext %1) #0 {
  %3 = alloca ptr, align 8
  %4 = alloca i8, align 1
  %5 = alloca i32, align 4
  store ptr %0, ptr %3, align 8
  %6 = zext i1 %1 to i8
  store i8 %6, ptr %4, align 1
  call void @llvm.lifetime.start.p0(i64 4, ptr %5) #9
  %7 = load ptr, ptr %3, align 8
  %8 = call i64 @LogicalTapeRead(ptr noundef %7, ptr noundef %5, i64 noundef 4)
  %9 = icmp ne i64 %8, 4
  br i1 %9, label %10, label %21

10:                                               ; preds = %2
  br label %11

11:                                               ; preds = %10
  br i1 true, label %12, label %14

12:                                               ; preds = %11
  %13 = call zeroext i1 @errstart_cold(i32 noundef 21, ptr noundef null) #10
  br i1 %13, label %16, label %18

14:                                               ; preds = %11
  %15 = call zeroext i1 @errstart(i32 noundef 21, ptr noundef null)
  br i1 %15, label %16, label %18

16:                                               ; preds = %14, %12
  %17 = call i32 (ptr, ...) @errmsg_internal(ptr noundef @.str.35)
  call void @errfinish(ptr noundef @.str.1, i32 noundef 2862, ptr noundef @__func__.getlen)
  br label %18

18:                                               ; preds = %16, %14, %12
  unreachable

19:                                               ; No predecessors!
  br label %20

20:                                               ; preds = %19
  br label %21

21:                                               ; preds = %20, %2
  %22 = load i32, ptr %5, align 4
  %23 = icmp eq i32 %22, 0
  br i1 %23, label %24, label %38

24:                                               ; preds = %21
  %25 = load i8, ptr %4, align 1, !range !4, !noundef !5
  %26 = trunc i8 %25 to i1
  br i1 %26, label %38, label %27

27:                                               ; preds = %24
  br label %28

28:                                               ; preds = %27
  br i1 true, label %29, label %31

29:                                               ; preds = %28
  %30 = call zeroext i1 @errstart_cold(i32 noundef 21, ptr noundef null) #10
  br i1 %30, label %33, label %35

31:                                               ; preds = %28
  %32 = call zeroext i1 @errstart(i32 noundef 21, ptr noundef null)
  br i1 %32, label %33, label %35

33:                                               ; preds = %31, %29
  %34 = call i32 (ptr, ...) @errmsg_internal(ptr noundef @.str.36)
  call void @errfinish(ptr noundef @.str.1, i32 noundef 2864, ptr noundef @__func__.getlen)
  br label %35

35:                                               ; preds = %33, %31, %29
  unreachable

36:                                               ; No predecessors!
  br label %37

37:                                               ; preds = %36
  br label %38

38:                                               ; preds = %37, %24, %21
  %39 = load i32, ptr %5, align 4
  call void @llvm.lifetime.end.p0(i64 4, ptr %5) #9
  ret i32 %39
}