; Function Attrs: nounwind uwtable
define internal fastcc i32 @getlen(ptr noundef %0, i1 noundef zeroext %1) unnamed_addr #0 {
  %3 = alloca i32, align 4
  call void @llvm.lifetime.start.p0(i64 4, ptr nonnull %3) #13
  %4 = call i64 @LogicalTapeRead(ptr noundef %0, ptr noundef nonnull %3, i64 noundef 4) #13
  %.not = icmp eq i64 %4, 4
  br i1 %.not, label %8, label %5

5:                                                ; preds = %2
  %6 = call zeroext i1 @errstart_cold(i32 noundef 21, ptr noundef null) #12
  call void @llvm.assume(i1 %6)
  %7 = call i32 (ptr, ...) @errmsg_internal(ptr noundef nonnull @.str.35) #13
  call void @errfinish(ptr noundef nonnull @.str.1, i32 noundef 2862, ptr noundef nonnull @__func__.getlen) #13
  unreachable

8:                                                ; preds = %2
  %9 = load i32, ptr %3, align 4
  %10 = icmp ne i32 %9, 0
  %brmerge = or i1 %1, %10
  br i1 %brmerge, label %14, label %11

11:                                               ; preds = %8
  %12 = call zeroext i1 @errstart_cold(i32 noundef 21, ptr noundef null) #12
  call void @llvm.assume(i1 %12)
  %13 = call i32 (ptr, ...) @errmsg_internal(ptr noundef nonnull @.str.36) #13
  call void @errfinish(ptr noundef nonnull @.str.1, i32 noundef 2864, ptr noundef nonnull @__func__.getlen) #13
  unreachable

14:                                               ; preds = %8
  call void @llvm.lifetime.end.p0(i64 4, ptr nonnull %3) #13
  ret i32 %9
}